target datalayout = "e-m:e-p270:32:32-p271:32:32-p272:64:64-i64:64-i128:128-f80:128-n8:16:32:64-S128"
target triple = "x86_64-pc-linux-gnu"

%"class.icu_77::UObject" = type { ptr }
%"class.icu_77::UnicodeString" = type { %"class.icu_77::Replaceable", %"union.icu_77::UnicodeString::StackBufferOrFields" }
%"class.icu_77::Replaceable" = type { %"class.icu_77::UObject" }
%"union.icu_77::UnicodeString::StackBufferOrFields" = type { %struct.anon.0, [32 x i8] }
%struct.anon.0 = type { i16, i32, i32, ptr }
%struct.anon = type { i16, [27 x i16] }

; Function Attrs: inlinehint mustprogress nounwind uwtable
define linkonce_odr noundef i32 @_ZNK6icu_7713UnicodeString14getShortLengthEv(ptr noundef nonnull align 8 dereferenceable(64) %0) #1 comdat align 2 {
  %2 = alloca ptr, align 8
  store ptr %0, ptr %2, align 8, !tbaa !33
  %3 = load ptr, ptr %2, align 8
  %4 = getelementptr inbounds nuw %"class.icu_77::UnicodeString", ptr %3, i32 0, i32 1
  %5 = getelementptr inbounds nuw %struct.anon.0, ptr %4, i32 0, i32 0
  %6 = load i16, ptr %5, align 8, !tbaa !35
  %7 = sext i16 %6 to i32
  %8 = ashr i32 %7, 5
  ret i32 %8
}

; Function Attrs: inlinehint mustprogress nounwind uwtable
define linkonce_odr noundef signext i8 @_ZNK6icu_7713UnicodeString14hasShortLengthEv(ptr noundef nonnull align 8 dereferenceable(64) %0) #1 comdat align 2 {
  %2 = alloca ptr, align 8
  store ptr %0, ptr %2, align 8, !tbaa !33
  %3 = load ptr, ptr %2, align 8
  %4 = getelementptr inbounds nuw %"class.icu_77::UnicodeString", ptr %3, i32 0, i32 1
  %5 = getelementptr inbounds nuw %struct.anon.0, ptr %4, i32 0, i32 0
  %6 = load i16, ptr %5, align 8, !tbaa !35
  %7 = sext i16 %6 to i32
  %8 = icmp sge i32 %7, 0
  %9 = zext i1 %8 to i8
  ret i8 %9
}

; Function Attrs: inlinehint mustprogress nounwind uwtable
define linkonce_odr noundef ptr @_ZNK6icu_7713UnicodeString13getArrayStartEv(ptr noundef nonnull align 8 dereferenceable(64) %0) #1 comdat align 2 {
  %2 = alloca ptr, align 8
  store ptr %0, ptr %2, align 8, !tbaa !33
  %3 = load ptr, ptr %2, align 8
  %4 = getelementptr inbounds nuw %"class.icu_77::UnicodeString", ptr %3, i32 0, i32 1
  %5 = getelementptr inbounds nuw %struct.anon.0, ptr %4, i32 0, i32 0
  %6 = load i16, ptr %5, align 8, !tbaa !35
  %7 = sext i16 %6 to i32
  %8 = and i32 %7, 2
  %9 = icmp ne i32 %8, 0
  br i1 %9, label %10, label %14

10:                                               ; preds = %1
  %11 = getelementptr inbounds nuw %"class.icu_77::UnicodeString", ptr %3, i32 0, i32 1
  %12 = getelementptr inbounds nuw %struct.anon, ptr %11, i32 0, i32 1
  %13 = getelementptr inbounds [27 x i16], ptr %12, i64 0, i64 0
  br label %18

14:                                               ; preds = %1
  %15 = getelementptr inbounds nuw %"class.icu_77::UnicodeString", ptr %3, i32 0, i32 1
  %16 = getelementptr inbounds nuw %struct.anon.0, ptr %15, i32 0, i32 3
  %17 = load ptr, ptr %16, align 8, !tbaa !35
  br label %18

18:                                               ; preds = %14, %10
  %19 = phi ptr [ %13, %10 ], [ %17, %14 ]
  ret ptr %19
}

; Function Attrs: inlinehint mustprogress uwtable
define linkonce_odr noundef i32 @_ZNK6icu_7713UnicodeString6lengthEv(ptr noundef nonnull align 8 dereferenceable(64) %0) #2 comdat align 2 {
  %2 = alloca ptr, align 8
  store ptr %0, ptr %2, align 8, !tbaa !33
  %3 = load ptr, ptr %2, align 8
  %4 = call noundef signext i8 @_ZNK6icu_7713UnicodeString14hasShortLengthEv(ptr noundef nonnull align 8 dereferenceable(64) %3)
  %5 = icmp ne i8 %4, 0
  br i1 %5, label %6, label %8

6:                                                ; preds = %1
  %7 = call noundef i32 @_ZNK6icu_7713UnicodeString14getShortLengthEv(ptr noundef nonnull align 8 dereferenceable(64) %3)
  br label %12

8:                                                ; preds = %1
  %9 = getelementptr inbounds nuw %"class.icu_77::UnicodeString", ptr %3, i32 0, i32 1
  %10 = getelementptr inbounds nuw %struct.anon.0, ptr %9, i32 0, i32 1
  %11 = load i32, ptr %10, align 4, !tbaa !35
  br label %12

12:                                               ; preds = %8, %6
  %13 = phi i32 [ %7, %6 ], [ %11, %8 ]
  ret i32 %13
}

; Function Attrs: inlinehint mustprogress uwtable
define linkonce_odr noundef zeroext i16 @_ZNK6icu_7713UnicodeString8doCharAtEi(ptr noundef nonnull align 8 dereferenceable(64) %0, i32 noundef %1) #2 comdat align 2 {
  %3 = alloca i16, align 2
  %4 = alloca ptr, align 8
  %5 = alloca i32, align 4
  store ptr %0, ptr %4, align 8, !tbaa !33
  store i32 %1, ptr %5, align 4, !tbaa !48
  %6 = load ptr, ptr %4, align 8
  %7 = load i32, ptr %5, align 4, !tbaa !48
  %8 = call noundef i32 @_ZNK6icu_7713UnicodeString6lengthEv(ptr noundef nonnull align 8 dereferenceable(64) %6)
  %9 = icmp ult i32 %7, %8
  br i1 %9, label %10, label %16

10:                                               ; preds = %2
  %11 = call noundef ptr @_ZNK6icu_7713UnicodeString13getArrayStartEv(ptr noundef nonnull align 8 dereferenceable(64) %6)
  %12 = load i32, ptr %5, align 4, !tbaa !48
  %13 = sext i32 %12 to i64
  %14 = getelementptr inbounds i16, ptr %11, i64 %13
  %15 = load i16, ptr %14, align 2, !tbaa !59
  store i16 %15, ptr %3, align 2
  br label %17

16:                                               ; preds = %2
  store i16 -1, ptr %3, align 2
  br label %17

17:                                               ; preds = %16, %10
  %18 = load i16, ptr %3, align 2
  ret i16 %18
}

; Function Attrs: inlinehint mustprogress uwtable
define linkonce_odr noundef zeroext i16 @_ZNK6icu_7713UnicodeString6charAtEi(ptr noundef nonnull align 8 dereferenceable(64) %0, i32 noundef %1) #2 comdat align 2 {
  %3 = alloca ptr, align 8
  %4 = alloca i32, align 4
  store ptr %0, ptr %3, align 8, !tbaa !33
  store i32 %1, ptr %4, align 4, !tbaa !48
  %5 = load ptr, ptr %3, align 8
  %6 = load i32, ptr %4, align 4, !tbaa !48
  %7 = call noundef zeroext i16 @_ZNK6icu_7713UnicodeString8doCharAtEi(ptr noundef nonnull align 8 dereferenceable(64) %5, i32 noundef %6)
  ret i16 %7
}

; Function Attrs: mustprogress uwtable
define noundef i32 @_ZN6icu_7714MessagePattern14parseArgNumberERKNS_13UnicodeStringEii(ptr noundef nonnull align 8 dereferenceable(64) %0, i32 noundef %1, i32 noundef %2) #0 align 2 {
  %4 = alloca i32, align 4
  %5 = alloca ptr, align 8
  %6 = alloca i32, align 4
  %7 = alloca i32, align 4
  %8 = alloca i32, align 4
  %9 = alloca i8, align 1
  %10 = alloca i16, align 2
  %11 = alloca i32, align 4
  store ptr %0, ptr %5, align 8, !tbaa !33
  store i32 %1, ptr %6, align 4, !tbaa !48
  store i32 %2, ptr %7, align 4, !tbaa !48
  %12 = load i32, ptr %6, align 4, !tbaa !48
  %13 = load i32, ptr %7, align 4, !tbaa !48
  %14 = icmp sge i32 %12, %13
  br i1 %14, label %15, label %16

15:                                               ; preds = %3
  store i32 -2, ptr %4, align 4
  br label %82

16:                                               ; preds = %3
  call void @llvm.lifetime.start.p0(i64 4, ptr %8) #12
  call void @llvm.lifetime.start.p0(i64 1, ptr %9) #12
  call void @llvm.lifetime.start.p0(i64 2, ptr %10) #12
  %17 = load ptr, ptr %5, align 8, !tbaa !33
  %18 = load i32, ptr %6, align 4, !tbaa !48
  %19 = add nsw i32 %18, 1
  store i32 %19, ptr %6, align 4, !tbaa !48
  %20 = call noundef zeroext i16 @_ZNK6icu_7713UnicodeString6charAtEi(ptr noundef nonnull align 8 dereferenceable(64) %17, i32 noundef %18)
  store i16 %20, ptr %10, align 2, !tbaa !59
  %21 = load i16, ptr %10, align 2, !tbaa !59
  %22 = zext i16 %21 to i32
  %23 = icmp eq i32 %22, 48
  br i1 %23, label %24, label %31

24:                                               ; preds = %16
  %25 = load i32, ptr %6, align 4, !tbaa !48
  %26 = load i32, ptr %7, align 4, !tbaa !48
  %27 = icmp eq i32 %25, %26
  br i1 %27, label %28, label %29

28:                                               ; preds = %24
  store i32 0, ptr %4, align 4
  store i32 1, ptr %11, align 4
  br label %81

29:                                               ; preds = %24
  store i32 0, ptr %8, align 4, !tbaa !48
  store i8 1, ptr %9, align 1, !tbaa !35
  br label %30

30:                                               ; preds = %29
  br label %45

31:                                               ; preds = %16
  %32 = load i16, ptr %10, align 2, !tbaa !59
  %33 = zext i16 %32 to i32
  %34 = icmp sle i32 49, %33
  br i1 %34, label %35, label %43

35:                                               ; preds = %31
  %36 = load i16, ptr %10, align 2, !tbaa !59
  %37 = zext i16 %36 to i32
  %38 = icmp sle i32 %37, 57
  br i1 %38, label %39, label %43

39:                                               ; preds = %35
  %40 = load i16, ptr %10, align 2, !tbaa !59
  %41 = zext i16 %40 to i32
  %42 = sub nsw i32 %41, 48
  store i32 %42, ptr %8, align 4, !tbaa !48
  store i8 0, ptr %9, align 1, !tbaa !35
  br label %44

43:                                               ; preds = %35, %31
  store i32 -1, ptr %4, align 4
  store i32 1, ptr %11, align 4
  br label %81

44:                                               ; preds = %39
  br label %45

45:                                               ; preds = %44, %30
  br label %46

46:                                               ; preds = %74, %45
  %47 = load i32, ptr %6, align 4, !tbaa !48
  %48 = load i32, ptr %7, align 4, !tbaa !48
  %49 = icmp slt i32 %47, %48
  br i1 %49, label %50, label %75

50:                                               ; preds = %46
  %51 = load ptr, ptr %5, align 8, !tbaa !33
  %52 = load i32, ptr %6, align 4, !tbaa !48
  %53 = add nsw i32 %52, 1
  store i32 %53, ptr %6, align 4, !tbaa !48
  %54 = call noundef zeroext i16 @_ZNK6icu_7713UnicodeString6charAtEi(ptr noundef nonnull align 8 dereferenceable(64) %51, i32 noundef %52)
  store i16 %54, ptr %10, align 2, !tbaa !59
  %55 = load i16, ptr %10, align 2, !tbaa !59
  %56 = zext i16 %55 to i32
  %57 = icmp sle i32 48, %56
  br i1 %57, label %58, label %73

58:                                               ; preds = %50
  %59 = load i16, ptr %10, align 2, !tbaa !59
  %60 = zext i16 %59 to i32
  %61 = icmp sle i32 %60, 57
  br i1 %61, label %62, label %73

62:                                               ; preds = %58
  %63 = load i32, ptr %8, align 4, !tbaa !48
  %64 = icmp sge i32 %63, 214748364
  br i1 %64, label %65, label %66

65:                                               ; preds = %62
  store i8 1, ptr %9, align 1, !tbaa !35
  br label %66

66:                                               ; preds = %65, %62
  %67 = load i32, ptr %8, align 4, !tbaa !48
  %68 = mul nsw i32 %67, 10
  %69 = load i16, ptr %10, align 2, !tbaa !59
  %70 = zext i16 %69 to i32
  %71 = sub nsw i32 %70, 48
  %72 = add nsw i32 %68, %71
  store i32 %72, ptr %8, align 4, !tbaa !48
  br label %74

73:                                               ; preds = %58, %50
  store i32 -1, ptr %4, align 4
  store i32 1, ptr %11, align 4
  br label %81

74:                                               ; preds = %66
  br label %46, !llvm.loop !78

75:                                               ; preds = %46
  %76 = load i8, ptr %9, align 1, !tbaa !35
  %77 = icmp ne i8 %76, 0
  br i1 %77, label %78, label %79

78:                                               ; preds = %75
  store i32 -2, ptr %4, align 4
  store i32 1, ptr %11, align 4
  br label %81

79:                                               ; preds = %75
  %80 = load i32, ptr %8, align 4, !tbaa !48
  store i32 %80, ptr %4, align 4
  store i32 1, ptr %11, align 4
  br label %81

81:                                               ; preds = %79, %78, %73, %43, %28
  call void @llvm.lifetime.end.p0(i64 2, ptr %10) #12
  call void @llvm.lifetime.end.p0(i64 1, ptr %9) #12
  call void @llvm.lifetime.end.p0(i64 4, ptr %8) #12
  br label %82

82:                                               ; preds = %81, %15
  %83 = load i32, ptr %4, align 4
  ret i32 %83
}