; Function Attrs: mustprogress nofree norecurse nosync nounwind willreturn memory(read, inaccessiblemem: none) uwtable
define noundef i32 @_ZN6icu_7714MessagePattern14parseArgNumberERKNS_13UnicodeStringEii(ptr noundef nonnull readonly align 8 captures(none) dereferenceable(64) %0, i32 noundef %1, i32 noundef %2) local_unnamed_addr #8 align 2 {
  %.not = icmp slt i32 %1, %2
  br i1 %.not, label %4, label %.thread

4:                                                ; preds = %3
  %5 = add nsw i32 %1, 1
  %6 = getelementptr inbounds nuw i8, ptr %0, i64 8
  %7 = load i16, ptr %6, align 8, !tbaa !19
  %8 = icmp slt i16 %7, 0
  %9 = ashr i16 %7, 5
  %10 = sext i16 %9 to i32
  %11 = getelementptr inbounds nuw i8, ptr %0, i64 12
  %12 = load i32, ptr %11, align 4
  %13 = select i1 %8, i32 %12, i32 %10
  %14 = icmp ult i32 %1, %13
  br i1 %14, label %_ZNK6icu_7713UnicodeString6charAtEi.exit, label %.thread

_ZNK6icu_7713UnicodeString6charAtEi.exit:         ; preds = %4
  %15 = and i16 %7, 2
  %.not.i.i.i = icmp eq i16 %15, 0
  %16 = getelementptr inbounds nuw i8, ptr %0, i64 10
  %17 = getelementptr inbounds nuw i8, ptr %0, i64 24
  %18 = load ptr, ptr %17, align 8
  %19 = select i1 %.not.i.i.i, ptr %18, ptr %16
  %20 = sext i32 %1 to i64
  %21 = getelementptr inbounds i16, ptr %19, i64 %20
  %22 = load i16, ptr %21, align 2, !tbaa !30
  %23 = zext i16 %22 to i32
  %24 = icmp eq i16 %22, 48
  br i1 %24, label %25, label %27

25:                                               ; preds = %_ZNK6icu_7713UnicodeString6charAtEi.exit
  %26 = icmp eq i32 %5, %2
  br i1 %26, label %.thread, label %31

27:                                               ; preds = %_ZNK6icu_7713UnicodeString6charAtEi.exit
  %28 = add i16 %22, -49
  %or.cond = icmp ult i16 %28, 9
  br i1 %or.cond, label %29, label %.thread

29:                                               ; preds = %27
  %30 = add nsw i32 %23, -48
  br label %31

31:                                               ; preds = %25, %29
  %.026 = phi i32 [ %30, %29 ], [ 0, %25 ]
  %.0 = phi i8 [ 0, %29 ], [ 1, %25 ]
  %32 = icmp slt i32 %5, %2
  br i1 %32, label %.lr.ph, label %._crit_edge

.lr.ph:                                           ; preds = %31
  %33 = sext i32 %5 to i64
  br label %34

34:                                               ; preds = %.lr.ph, %40
  %indvars.iv = phi i64 [ %33, %.lr.ph ], [ %indvars.iv.next, %40 ]
  %.149 = phi i8 [ %.0, %.lr.ph ], [ %spec.select, %40 ]
  %.12748 = phi i32 [ %.026, %.lr.ph ], [ %45, %40 ]
  %indvars.iv.next = add nsw i64 %indvars.iv, 1
  %35 = trunc nsw i64 %indvars.iv to i32
  %36 = icmp ugt i32 %13, %35
  br i1 %36, label %_ZNK6icu_7713UnicodeString6charAtEi.exit38, label %.thread

_ZNK6icu_7713UnicodeString6charAtEi.exit38:       ; preds = %34
  %37 = getelementptr inbounds i16, ptr %19, i64 %indvars.iv
  %38 = load i16, ptr %37, align 2, !tbaa !30
  %39 = add i16 %38, -48
  %or.cond5 = icmp ult i16 %39, 10
  br i1 %or.cond5, label %40, label %.thread

40:                                               ; preds = %_ZNK6icu_7713UnicodeString6charAtEi.exit38
  %41 = zext nneg i16 %38 to i32
  %42 = icmp sgt i32 %.12748, 214748363
  %spec.select = select i1 %42, i8 1, i8 %.149
  %43 = mul nsw i32 %.12748, 10
  %44 = add i32 %43, -48
  %45 = add i32 %44, %41
  %lftr.wideiv = trunc i64 %indvars.iv.next to i32
  %exitcond.not = icmp eq i32 %2, %lftr.wideiv
  br i1 %exitcond.not, label %._crit_edge, label %34, !llvm.loop !60

._crit_edge:                                      ; preds = %40, %31
  %.127.lcssa = phi i32 [ %.026, %31 ], [ %45, %40 ]
  %.1.lcssa = phi i8 [ %.0, %31 ], [ %spec.select, %40 ]
  %.not35 = icmp eq i8 %.1.lcssa, 0
  %.127. = select i1 %.not35, i32 %.127.lcssa, i32 -2
  br label %.thread

.thread:                                          ; preds = %34, %_ZNK6icu_7713UnicodeString6charAtEi.exit38, %4, %25, %27, %._crit_edge, %3
  %.028 = phi i32 [ -2, %3 ], [ 0, %25 ], [ -1, %27 ], [ %.127., %._crit_edge ], [ -1, %4 ], [ -1, %_ZNK6icu_7713UnicodeString6charAtEi.exit38 ], [ -1, %34 ]
  ret i32 %.028
}